target datalayout = "e-m:e-p270:32:32-p271:32:32-p272:64:64-i64:64-i128:128-f80:128-n8:16:32:64-S128"
target triple = "x86_64-pc-linux-gnu"

%struct.RelationData = type { %struct.RelFileLocator, ptr, i32, i32, i8, i8, i8, i8, i8, i32, i32, i32, i32, ptr, ptr, i32, %struct.LockInfoData, ptr, ptr, ptr, ptr, ptr, i8, ptr, ptr, ptr, ptr, ptr, ptr, i32, ptr, i8, ptr, ptr, i32, i8, i32, ptr, i8, ptr, ptr, ptr, ptr, ptr, ptr, ptr, i32, ptr, ptr, ptr, ptr, ptr, ptr, ptr, ptr, ptr, ptr, ptr, ptr, ptr, ptr, ptr, ptr, ptr, ptr, ptr, i32, i8, ptr }
%struct.RelFileLocator = type { i32, i32, i32 }
%struct.LockInfoData = type { %struct.LockRelId }
%struct.LockRelId = type { i32, i32 }
%struct.nameData = type { [64 x i8] }
%struct.BrinDesc = type { ptr, ptr, ptr, ptr, i32, [0 x ptr] }
%struct.TupleDescData = type { i32, i32, i32, i32, ptr, [0 x %struct.CompactAttribute] }
%struct.CompactAttribute = type { i32, i16, i8, i8, i8, i8, i8, i8, i8 }
%struct.BrinOpcInfo = type { i16, i8, ptr, [0 x ptr] }
%struct.FormData_pg_attribute = type { i32, %struct.nameData, i32, i16, i16, i32, i16, i8, i8, i8, i8, i8, i8, i8, i8, i8, i8, i8, i16, i32 }

@CurrentMemoryContext = external global ptr, align 8
@.str.13 = private unnamed_addr constant [14 x i8] c"brin desc cxt\00", align 1

; Function Attrs: inlinehint nounwind uwtable
define internal ptr @DatumGetPointer(i64 noundef %0) #2 {
  %2 = alloca i64, align 8
  store i64 %0, ptr %2, align 8
  %3 = load i64, ptr %2, align 8
  %4 = inttoptr i64 %3 to ptr
  ret ptr %4
}

; Function Attrs: inlinehint nounwind uwtable
define internal ptr @TupleDescAttr(ptr noundef %0, i32 noundef %1) #2 {
  %3 = alloca ptr, align 8
  %4 = alloca i32, align 4
  %5 = alloca ptr, align 8
  store ptr %0, ptr %3, align 8
  store i32 %1, ptr %4, align 4
  call void @llvm.lifetime.start.p0(i64 8, ptr %5) #9
  %6 = load ptr, ptr %3, align 8
  %7 = load ptr, ptr %3, align 8
  %8 = getelementptr inbounds nuw %struct.TupleDescData, ptr %7, i32 0, i32 0
  %9 = load i32, ptr %8, align 8
  %10 = sext i32 %9 to i64
  %11 = mul i64 %10, 16
  %12 = add i64 24, %11
  %13 = getelementptr inbounds nuw i8, ptr %6, i64 %12
  store ptr %13, ptr %5, align 8
  %14 = load ptr, ptr %5, align 8
  %15 = load i32, ptr %4, align 4
  %16 = sext i32 %15 to i64
  %17 = getelementptr inbounds %struct.FormData_pg_attribute, ptr %14, i64 %16
  call void @llvm.lifetime.end.p0(i64 8, ptr %5) #9
  ret ptr %17
}

; Function Attrs: inlinehint nounwind uwtable
define internal ptr @MemoryContextSwitchTo(ptr noundef %0) #2 {
  %2 = alloca ptr, align 8
  %3 = alloca ptr, align 8
  store ptr %0, ptr %2, align 8
  call void @llvm.lifetime.start.p0(i64 8, ptr %3) #9
  %4 = load ptr, ptr @CurrentMemoryContext, align 8
  store ptr %4, ptr %3, align 8
  %5 = load ptr, ptr %2, align 8
  store ptr %5, ptr @CurrentMemoryContext, align 8
  %6 = load ptr, ptr %3, align 8
  call void @llvm.lifetime.end.p0(i64 8, ptr %3) #9
  ret ptr %6
}

; Function Attrs: nounwind uwtable
define dso_local ptr @brin_build_desc(ptr noundef %0) #0 {
  %2 = alloca ptr, align 8
  %3 = alloca ptr, align 8
  %4 = alloca ptr, align 8
  %5 = alloca ptr, align 8
  %6 = alloca i32, align 4
  %7 = alloca i32, align 4
  %8 = alloca i64, align 8
  %9 = alloca ptr, align 8
  %10 = alloca ptr, align 8
  %11 = alloca i32, align 4
  %12 = alloca ptr, align 8
  %13 = alloca ptr, align 8
  store ptr %0, ptr %2, align 8
  call void @llvm.lifetime.start.p0(i64 8, ptr %3) #9
  call void @llvm.lifetime.start.p0(i64 8, ptr %4) #9
  call void @llvm.lifetime.start.p0(i64 8, ptr %5) #9
  call void @llvm.lifetime.start.p0(i64 4, ptr %6) #9
  store i32 0, ptr %6, align 4
  call void @llvm.lifetime.start.p0(i64 4, ptr %7) #9
  call void @llvm.lifetime.start.p0(i64 8, ptr %8) #9
  call void @llvm.lifetime.start.p0(i64 8, ptr %9) #9
  call void @llvm.lifetime.start.p0(i64 8, ptr %10) #9
  br label %14

14:                                               ; preds = %1
  br label %15

15:                                               ; preds = %14
  br label %16

16:                                               ; preds = %15
  store i32 1, ptr %11, align 4
  %17 = load ptr, ptr @CurrentMemoryContext, align 8
  %18 = call ptr @AllocSetContextCreateInternal(ptr noundef %17, ptr noundef @.str.13, i64 noundef 0, i64 noundef 1024, i64 noundef 8192)
  store ptr %18, ptr %9, align 8
  %19 = load ptr, ptr %9, align 8
  %20 = call ptr @MemoryContextSwitchTo(ptr noundef %19)
  store ptr %20, ptr %10, align 8
  %21 = load ptr, ptr %2, align 8
  %22 = getelementptr inbounds nuw %struct.RelationData, ptr %21, i32 0, i32 14
  %23 = load ptr, ptr %22, align 8
  store ptr %23, ptr %5, align 8
  %24 = load ptr, ptr %5, align 8
  %25 = getelementptr inbounds nuw %struct.TupleDescData, ptr %24, i32 0, i32 0
  %26 = load i32, ptr %25, align 8
  %27 = sext i32 %26 to i64
  %28 = mul i64 8, %27
  %29 = call ptr @palloc(i64 noundef %28)
  store ptr %29, ptr %3, align 8
  store i32 0, ptr %7, align 4
  br label %30

30:                                               ; preds = %66, %16
  %31 = load i32, ptr %7, align 4
  %32 = load ptr, ptr %5, align 8
  %33 = getelementptr inbounds nuw %struct.TupleDescData, ptr %32, i32 0, i32 0
  %34 = load i32, ptr %33, align 8
  %35 = icmp slt i32 %31, %34
  br i1 %35, label %36, label %69

36:                                               ; preds = %30
  call void @llvm.lifetime.start.p0(i64 8, ptr %12) #9
  call void @llvm.lifetime.start.p0(i64 8, ptr %13) #9
  %37 = load ptr, ptr %5, align 8
  %38 = load i32, ptr %7, align 4
  %39 = call ptr @TupleDescAttr(ptr noundef %37, i32 noundef %38)
  store ptr %39, ptr %13, align 8
  %40 = load ptr, ptr %2, align 8
  %41 = load i32, ptr %7, align 4
  %42 = add i32 %41, 1
  %43 = trunc i32 %42 to i16
  %44 = call ptr @index_getprocinfo(ptr noundef %40, i16 noundef signext %43, i16 noundef zeroext 1)
  store ptr %44, ptr %12, align 8
  %45 = load ptr, ptr %12, align 8
  %46 = load ptr, ptr %13, align 8
  %47 = getelementptr inbounds nuw %struct.FormData_pg_attribute, ptr %46, i32 0, i32 2
  %48 = load i32, ptr %47, align 4
  %49 = zext i32 %48 to i64
  %50 = call i64 @FunctionCall1Coll(ptr noundef %45, i32 noundef 0, i64 noundef %49)
  %51 = call ptr @DatumGetPointer(i64 noundef %50)
  %52 = load ptr, ptr %3, align 8
  %53 = load i32, ptr %7, align 4
  %54 = sext i32 %53 to i64
  %55 = getelementptr inbounds ptr, ptr %52, i64 %54
  store ptr %51, ptr %55, align 8
  %56 = load ptr, ptr %3, align 8
  %57 = load i32, ptr %7, align 4
  %58 = sext i32 %57 to i64
  %59 = getelementptr inbounds ptr, ptr %56, i64 %58
  %60 = load ptr, ptr %59, align 8
  %61 = getelementptr inbounds nuw %struct.BrinOpcInfo, ptr %60, i32 0, i32 0
  %62 = load i16, ptr %61, align 8
  %63 = zext i16 %62 to i32
  %64 = load i32, ptr %6, align 4
  %65 = add i32 %64, %63
  store i32 %65, ptr %6, align 4
  call void @llvm.lifetime.end.p0(i64 8, ptr %13) #9
  call void @llvm.lifetime.end.p0(i64 8, ptr %12) #9
  br label %66

66:                                               ; preds = %36
  %67 = load i32, ptr %7, align 4
  %68 = add i32 %67, 1
  store i32 %68, ptr %7, align 4
  br label %30, !llvm.loop !14

69:                                               ; preds = %30
  %70 = load ptr, ptr %5, align 8
  %71 = getelementptr inbounds nuw %struct.TupleDescData, ptr %70, i32 0, i32 0
  %72 = load i32, ptr %71, align 8
  %73 = sext i32 %72 to i64
  %74 = mul i64 8, %73
  %75 = add i64 40, %74
  store i64 %75, ptr %8, align 8
  %76 = load i64, ptr %8, align 8
  %77 = call ptr @palloc(i64 noundef %76)
  store ptr %77, ptr %4, align 8
  %78 = load ptr, ptr %9, align 8
  %79 = load ptr, ptr %4, align 8
  %80 = getelementptr inbounds nuw %struct.BrinDesc, ptr %79, i32 0, i32 0
  store ptr %78, ptr %80, align 8
  %81 = load ptr, ptr %2, align 8
  %82 = load ptr, ptr %4, align 8
  %83 = getelementptr inbounds nuw %struct.BrinDesc, ptr %82, i32 0, i32 1
  store ptr %81, ptr %83, align 8
  %84 = load ptr, ptr %5, align 8
  %85 = load ptr, ptr %4, align 8
  %86 = getelementptr inbounds nuw %struct.BrinDesc, ptr %85, i32 0, i32 2
  store ptr %84, ptr %86, align 8
  %87 = load ptr, ptr %4, align 8
  %88 = getelementptr inbounds nuw %struct.BrinDesc, ptr %87, i32 0, i32 3
  store ptr null, ptr %88, align 8
  %89 = load i32, ptr %6, align 4
  %90 = load ptr, ptr %4, align 8
  %91 = getelementptr inbounds nuw %struct.BrinDesc, ptr %90, i32 0, i32 4
  store i32 %89, ptr %91, align 8
  store i32 0, ptr %7, align 4
  br label %92

92:                                               ; preds = %109, %69
  %93 = load i32, ptr %7, align 4
  %94 = load ptr, ptr %5, align 8
  %95 = getelementptr inbounds nuw %struct.TupleDescData, ptr %94, i32 0, i32 0
  %96 = load i32, ptr %95, align 8
  %97 = icmp slt i32 %93, %96
  br i1 %97, label %98, label %112

98:                                               ; preds = %92
  %99 = load ptr, ptr %3, align 8
  %100 = load i32, ptr %7, align 4
  %101 = sext i32 %100 to i64
  %102 = getelementptr inbounds ptr, ptr %99, i64 %101
  %103 = load ptr, ptr %102, align 8
  %104 = load ptr, ptr %4, align 8
  %105 = getelementptr inbounds nuw %struct.BrinDesc, ptr %104, i32 0, i32 5
  %106 = load i32, ptr %7, align 4
  %107 = sext i32 %106 to i64
  %108 = getelementptr inbounds [0 x ptr], ptr %105, i64 0, i64 %107
  store ptr %103, ptr %108, align 8
  br label %109

109:                                              ; preds = %98
  %110 = load i32, ptr %7, align 4
  %111 = add i32 %110, 1
  store i32 %111, ptr %7, align 4
  br label %92, !llvm.loop !15

112:                                              ; preds = %92
  %113 = load ptr, ptr %3, align 8
  call void @pfree(ptr noundef %113)
  %114 = load ptr, ptr %10, align 8
  %115 = call ptr @MemoryContextSwitchTo(ptr noundef %114)
  %116 = load ptr, ptr %4, align 8
  call void @llvm.lifetime.end.p0(i64 8, ptr %10) #9
  call void @llvm.lifetime.end.p0(i64 8, ptr %9) #9
  call void @llvm.lifetime.end.p0(i64 8, ptr %8) #9
  call void @llvm.lifetime.end.p0(i64 4, ptr %7) #9
  call void @llvm.lifetime.end.p0(i64 4, ptr %6) #9
  call void @llvm.lifetime.end.p0(i64 8, ptr %5) #9
  call void @llvm.lifetime.end.p0(i64 8, ptr %4) #9
  call void @llvm.lifetime.end.p0(i64 8, ptr %3) #9
  ret ptr %116
}